; Function Attrs: mustprogress nounwind uwtable
define dso_local void @_ZN25cmGeneratedFileStreamBaseD2Ev(ptr noundef nonnull align 8 dereferenceable(100) %0) unnamed_addr #4 align 2 personality ptr @__gxx_personality_v0 {
  %2 = invoke noundef zeroext i1 @_ZN25cmGeneratedFileStreamBase5CloseEv(ptr noundef nonnull align 8 dereferenceable(100) %0)
          to label %3 unwind label %6

3:                                                ; preds = %1
  %4 = getelementptr inbounds i8, ptr %0, i64 64
  tail call void @_ZNSt7__cxx1112basic_stringIcSt11char_traitsIcESaIcEED1Ev(ptr noundef nonnull align 8 dereferenceable(32) %4) #15
  %5 = getelementptr inbounds i8, ptr %0, i64 32
  tail call void @_ZNSt7__cxx1112basic_stringIcSt11char_traitsIcESaIcEED1Ev(ptr noundef nonnull align 8 dereferenceable(32) %5) #15
  tail call void @_ZNSt7__cxx1112basic_stringIcSt11char_traitsIcESaIcEED1Ev(ptr noundef nonnull align 8 dereferenceable(32) %0) #15
  ret void

6:                                                ; preds = %1
  %7 = landingpad { ptr, i32 }
          catch ptr null
  %8 = extractvalue { ptr, i32 } %7, 0
  tail call void @__clang_call_terminate(ptr %8) #19
  unreachable
}